; Function Attrs: mustprogress nofree nounwind willreturn memory(read) uwtable
define noundef zeroext i1 @_ZN8facebook5velox6common9Tokenizer28isUnquotedSubscriptCharacterEc(ptr nocapture noundef nonnull readnone align 8 dereferenceable(72) %this, i8 noundef signext %c) local_unnamed_addr #7 align 2 {
entry:
  switch i8 %c, label %lor.rhs [
    i8 95, label %lor.end
    i8 45, label %lor.end
  ]

lor.rhs:                                          ; preds = %entry
  %conv = sext i8 %c to i32
  %call = tail call i32 @isalnum(i32 noundef %conv) #23
  %tobool = icmp ne i32 %call, 0
  br label %lor.end

lor.end:                                          ; preds = %entry, %entry, %lor.rhs
  %0 = phi i1 [ true, %entry ], [ %tobool, %lor.rhs ], [ true, %entry ]
  ret i1 %0
}